(dp0
S'./src/index.jade'
p1
F1512203701.2031384
sS'./src/style.scss'
p2
F1482410573.0
sS'./src/lib/test2.css'
p3
F1454685120.0
sS'./src/lib/main.js'
p4
F1454685120.0
sS'./src/lib/test.scss'
p5
F1454685120.0
sS'./src/IMG_0003.jpg'
p6
F1454685120.0
s.