(dp0
S'./src/index.jade'
p1
F1486349166.268161
sS'./src/style.scss'
p2
F1486349166.2822597
sS'./src/lib/test2.css'
p3
F1486349166.3143766
sS'./src/lib/main.js'
p4
F1486349166.3018358
sS'./src/lib/test.scss'
p5
F1486349166.303082
sS'./src/IMG_0003.jpg'
p6
F1486349166.2534132
s.