(dp0
S'./src/index.jade'
p1
F1454240718.0
sS'./src/lib/test.scss'
p2
F1454240718.0
sS'./src/lib/test2.css'
p3
F1454240718.0
sS'./src/IMG_0003.jpg'
p4
F1454240718.0
sS'./src/lib/main.js'
p5
F1454240718.0
s.